; Function Attrs: mustprogress nofree norecurse nosync nounwind willreturn memory(argmem: readwrite) uwtable
define hidden void @_ZN8PJconsts13copyStateFromERKS_(ptr noundef nonnull writeonly align 8 captures(none) dereferenceable(856) initializes((344, 348), (844, 847)) %0, ptr noundef nonnull readonly align 8 captures(none) dereferenceable(856) %1) local_unnamed_addr #9 align 2 {
  %3 = getelementptr inbounds nuw i8, ptr %1, i64 344
  %4 = load i32, ptr %3, align 8, !tbaa !84
  %5 = getelementptr inbounds nuw i8, ptr %0, i64 344
  store i32 %4, ptr %5, align 8, !tbaa !84
  %6 = getelementptr inbounds nuw i8, ptr %1, i64 844
  %7 = load i8, ptr %6, align 4, !tbaa !46, !range !85, !noundef !86
  %8 = getelementptr inbounds nuw i8, ptr %0, i64 844
  store i8 %7, ptr %8, align 4, !tbaa !46
  %9 = getelementptr inbounds nuw i8, ptr %1, i64 845
  %10 = load i8, ptr %9, align 1, !tbaa !47, !range !85, !noundef !86
  %11 = getelementptr inbounds nuw i8, ptr %0, i64 845
  store i8 %10, ptr %11, align 1, !tbaa !47
  %12 = getelementptr inbounds nuw i8, ptr %1, i64 846
  %13 = load i8, ptr %12, align 2, !tbaa !48, !range !85, !noundef !86
  %14 = getelementptr inbounds nuw i8, ptr %0, i64 846
  store i8 %13, ptr %14, align 2, !tbaa !48
  ret void
}